; Function Attrs: mustprogress uwtable
define hidden noundef nonnull ptr @_ZN4nori12Scene_createERKNS_12PropertyListE(ptr nocapture nonnull readnone align 8 %0) #3 personality ptr @__gxx_personality_v0 {
  %2 = tail call noalias noundef nonnull dereferenceable(64) ptr @_Znwm(i64 noundef 64) #15
  store ptr getelementptr inbounds ({ [9 x ptr] }, ptr @_ZTVN4nori5SceneE, i64 0, i32 0, i64 2), ptr %2, align 8
  %3 = getelementptr inbounds i8, ptr %2, i64 8
  tail call void @llvm.memset.p0.i64(ptr noundef nonnull align 8 dereferenceable(56) %3, i8 0, i64 56, i1 false)
  %4 = invoke noalias noundef nonnull dereferenceable(32) ptr @_Znwm(i64 noundef 32) #15
          to label %5 unwind label %9

5:                                                ; preds = %1
  %6 = getelementptr inbounds i8, ptr %2, i64 56
  %7 = getelementptr inbounds i8, ptr %4, i64 8
  %8 = getelementptr inbounds i8, ptr %4, i64 24
  store i64 0, ptr %4, align 8
  store <4 x float> <float 0x7FF0000000000000, float 0x7FF0000000000000, float 0x7FF0000000000000, float 0xFFF0000000000000>, ptr %7, align 4
  store <2 x float> <float 0xFFF0000000000000, float 0xFFF0000000000000>, ptr %8, align 4
  store ptr %4, ptr %6, align 8
  ret ptr %2

9:                                                ; preds = %1
  %10 = landingpad { ptr, i32 }
          cleanup
  tail call void @_ZdlPv(ptr noundef nonnull %2) #16
  resume { ptr, i32 } %10
}